; ModuleID = '23/845.c'
source_filename = "23/845.c"
target datalayout = "e-m:e-p270:32:32-p271:32:32-p272:64:64-i64:64-f80:128-n8:16:32:64-S128"
target triple = "x86_64-pc-linux-gnu"

@.str = private unnamed_addr constant [3 x i8] c"%s\00", align 1
@.str.1 = private unnamed_addr constant [2 x i8] c" \00", align 1

; Function Attrs: noinline nounwind uwtable
define dso_local void @main() #0 {
  %1 = alloca i32, align 4
  %2 = alloca i32, align 4
  %3 = alloca [100 x i8*], align 16
  store i32 0, i32* %1, align 4
  %4 = call noalias i8* @malloc(i64 100) #3
  %5 = getelementptr inbounds [100 x i8*], [100 x i8*]* %3, i64 0, i64 0
  store i8* %4, i8** %5, align 16
  br label %6

6:                                                ; preds = %13, %0
  %7 = load i32, i32* %1, align 4
  %8 = sext i32 %7 to i64
  %9 = getelementptr inbounds [100 x i8*], [100 x i8*]* %3, i64 0, i64 %8
  %10 = load i8*, i8** %9, align 8
  %11 = call i32 (i8*, ...) @__isoc99_scanf(i8* getelementptr inbounds ([3 x i8], [3 x i8]* @.str, i64 0, i64 0), i8* %10)
  %12 = icmp ne i32 %11, -1
  br i1 %12, label %13, label %20

13:                                               ; preds = %6
  %14 = load i32, i32* %1, align 4
  %15 = add nsw i32 %14, 1
  store i32 %15, i32* %1, align 4
  %16 = call noalias i8* @malloc(i64 100) #3
  %17 = load i32, i32* %1, align 4
  %18 = sext i32 %17 to i64
  %19 = getelementptr inbounds [100 x i8*], [100 x i8*]* %3, i64 0, i64 %18
  store i8* %16, i8** %19, align 8
  br label %6

20:                                               ; preds = %6
  %21 = load i32, i32* %1, align 4
  store i32 %21, i32* %2, align 4
  %22 = load i32, i32* %2, align 4
  %23 = sub nsw i32 %22, 1
  store i32 %23, i32* %1, align 4
  br label %24

24:                                               ; preds = %40, %20
  %25 = load i32, i32* %1, align 4
  %26 = icmp sge i32 %25, 0
  br i1 %26, label %27, label %43

27:                                               ; preds = %24
  %28 = load i32, i32* %1, align 4
  %29 = load i32, i32* %2, align 4
  %30 = sub nsw i32 %29, 1
  %31 = icmp ne i32 %28, %30
  br i1 %31, label %32, label %34

32:                                               ; preds = %27
  %33 = call i32 (i8*, ...) @printf(i8* getelementptr inbounds ([2 x i8], [2 x i8]* @.str.1, i64 0, i64 0))
  br label %34

34:                                               ; preds = %32, %27
  %35 = load i32, i32* %1, align 4
  %36 = sext i32 %35 to i64
  %37 = getelementptr inbounds [100 x i8*], [100 x i8*]* %3, i64 0, i64 %36
  %38 = load i8*, i8** %37, align 8
  %39 = call i32 (i8*, ...) @printf(i8* getelementptr inbounds ([3 x i8], [3 x i8]* @.str, i64 0, i64 0), i8* %38)
  br label %40

40:                                               ; preds = %34
  %41 = load i32, i32* %1, align 4
  %42 = add nsw i32 %41, -1
  store i32 %42, i32* %1, align 4
  br label %24

43:                                               ; preds = %24
  ret void
}

; Function Attrs: nounwind
declare dso_local noalias i8* @malloc(i64) #1

declare dso_local i32 @__isoc99_scanf(i8*, ...) #2

declare dso_local i32 @printf(i8*, ...) #2


!llvm.module.flags = !{!0}
!llvm.ident = !{!1}

!0 = !{i32 1, !"wchar_size", i32 4}
!1 = !{!"clang version 10.0.0-4ubuntu1 "}
